; Function Attrs: nofree norecurse nosync nounwind memory(argmem: readwrite) uwtable
define internal void @rgb48BEToUV_half_c(ptr noundef writeonly captures(none) %0, ptr noundef writeonly captures(none) %1, ptr readnone captures(none) %2, ptr noundef readonly captures(none) %3, ptr readnone captures(none) %4, i32 noundef %5, ptr noundef readonly captures(none) %6, ptr readnone captures(none) %7) #1 {
  %9 = getelementptr inbounds nuw i8, ptr %6, i64 12
  %10 = load i32, ptr %9, align 4, !tbaa !42
  %11 = getelementptr inbounds nuw i8, ptr %6, i64 16
  %12 = load i32, ptr %11, align 4, !tbaa !42
  %13 = getelementptr inbounds nuw i8, ptr %6, i64 20
  %14 = load i32, ptr %13, align 4, !tbaa !42
  %15 = getelementptr inbounds nuw i8, ptr %6, i64 24
  %16 = load i32, ptr %15, align 4, !tbaa !42
  %17 = getelementptr inbounds nuw i8, ptr %6, i64 28
  %18 = load i32, ptr %17, align 4, !tbaa !42
  %19 = getelementptr inbounds nuw i8, ptr %6, i64 32
  %20 = load i32, ptr %19, align 4, !tbaa !42
  %21 = icmp sgt i32 %5, 0
  br i1 %21, label %.lr.ph.preheader, label %rgb48ToUV_half_c_template.exit

.lr.ph.preheader:                                 ; preds = %8
  %wide.trip.count = zext nneg i32 %5 to i64
  br label %.lr.ph

.lr.ph:                                           ; preds = %.lr.ph.preheader, %.lr.ph
  %indvars.iv = phi i64 [ 0, %.lr.ph.preheader ], [ %indvars.iv.next, %.lr.ph ]
  %.idx = mul nuw nsw i64 %indvars.iv, 12
  %22 = getelementptr inbounds nuw i8, ptr %3, i64 %.idx
  %23 = load i16, ptr %22, align 1, !tbaa !34
  %24 = tail call i16 @llvm.bswap.i16(i16 %23)
  %25 = zext i16 %24 to i32
  %26 = getelementptr inbounds nuw i8, ptr %22, i64 6
  %27 = load i16, ptr %26, align 1, !tbaa !34
  %28 = tail call i16 @llvm.bswap.i16(i16 %27)
  %29 = zext i16 %28 to i32
  %30 = add nuw nsw i32 %25, 1
  %31 = add nuw nsw i32 %30, %29
  %32 = lshr i32 %31, 1
  %33 = getelementptr inbounds nuw i8, ptr %22, i64 2
  %34 = load i16, ptr %33, align 1, !tbaa !34
  %35 = tail call i16 @llvm.bswap.i16(i16 %34)
  %36 = zext i16 %35 to i32
  %37 = getelementptr inbounds nuw i8, ptr %22, i64 8
  %38 = load i16, ptr %37, align 1, !tbaa !34
  %39 = tail call i16 @llvm.bswap.i16(i16 %38)
  %40 = zext i16 %39 to i32
  %41 = add nuw nsw i32 %36, 1
  %42 = add nuw nsw i32 %41, %40
  %43 = lshr i32 %42, 1
  %44 = getelementptr inbounds nuw i8, ptr %22, i64 4
  %45 = load i16, ptr %44, align 1, !tbaa !34
  %46 = tail call i16 @llvm.bswap.i16(i16 %45)
  %47 = zext i16 %46 to i32
  %48 = getelementptr inbounds nuw i8, ptr %22, i64 10
  %49 = load i16, ptr %48, align 1, !tbaa !34
  %50 = tail call i16 @llvm.bswap.i16(i16 %49)
  %51 = zext i16 %50 to i32
  %52 = add nuw nsw i32 %47, 1
  %53 = add nuw nsw i32 %52, %51
  %54 = lshr i32 %53, 1
  %55 = mul i32 %32, %10
  %56 = mul i32 %43, %12
  %57 = mul i32 %54, %14
  %58 = add i32 %55, 1073758208
  %59 = add i32 %58, %56
  %60 = add i32 %59, %57
  %61 = lshr i32 %60, 15
  %62 = trunc i32 %61 to i16
  %63 = getelementptr inbounds nuw i16, ptr %0, i64 %indvars.iv
  store i16 %62, ptr %63, align 2, !tbaa !43
  %64 = mul i32 %32, %16
  %65 = mul i32 %43, %18
  %66 = mul i32 %54, %20
  %67 = add i32 %64, 1073758208
  %68 = add i32 %67, %65
  %69 = add i32 %68, %66
  %70 = lshr i32 %69, 15
  %71 = trunc i32 %70 to i16
  %72 = getelementptr inbounds nuw i16, ptr %1, i64 %indvars.iv
  store i16 %71, ptr %72, align 2, !tbaa !43
  %indvars.iv.next = add nuw nsw i64 %indvars.iv, 1
  %exitcond.not = icmp eq i64 %indvars.iv.next, %wide.trip.count
  br i1 %exitcond.not, label %rgb48ToUV_half_c_template.exit, label %.lr.ph, !llvm.loop !77

rgb48ToUV_half_c_template.exit:                   ; preds = %.lr.ph, %8
  ret void
}